; Function Attrs: nounwind uwtable
define internal noundef ptr @getpath_warn(ptr readnone captures(none) %0, ptr noundef %1) #0 {
  %3 = alloca ptr, align 8
  call void @llvm.lifetime.start.p0(i64 8, ptr nonnull %3) #13
  %4 = call i32 (ptr, ptr, ...) @PyArg_ParseTuple(ptr noundef %1, ptr noundef nonnull @.str.49, ptr noundef nonnull %3) #13
  %.not = icmp eq i32 %4, 0
  br i1 %.not, label %10, label %5

5:                                                ; preds = %2
  %6 = load ptr, ptr @stderr, align 8, !tbaa !52
  %7 = load ptr, ptr %3, align 8, !tbaa !31
  %8 = call ptr @PyUnicode_AsUTF8(ptr noundef %7) #13
  %9 = call i32 (ptr, ptr, ...) @fprintf(ptr noundef %6, ptr noundef nonnull @.str.60, ptr noundef %8) #15
  br label %10

10:                                               ; preds = %2, %5
  %.0 = phi ptr [ @_Py_NoneStruct, %5 ], [ null, %2 ]
  call void @llvm.lifetime.end.p0(i64 8, ptr nonnull %3) #13
  ret ptr %.0
}